Certificate:
    Data:
        Version: 3 (0x2)
        Serial Number: 4096 (0x1000)
        Signature Algorithm: md5WithRSAEncryption
        Issuer: C=US, ST=UT, L=SLC, O=UOFU, OU=MSD, CN=SAM/emailAddress=u1195258@umail.utah.edu
        Validity
            Not Before: Mar 13 16:31:51 2024 GMT
            Not After : Mar 13 16:31:51 2025 GMT
        Subject: C=US, ST=UT, O=UOFU, OU=MSD, CN=SERVER/emailAddress=u1195258@umail.utah.edu
        Subject Public Key Info:
            Public Key Algorithm: rsaEncryption
                Public-Key: (4096 bit)
                Modulus:
                    00:a3:bd:dd:77:ab:d2:a9:34:aa:3f:13:cd:bf:5d:
                    44:3b:a9:2c:92:41:55:f5:d4:bc:f4:ff:5f:67:22:
                    6d:c4:35:86:e5:2f:a7:3c:33:a3:21:92:e0:b6:69:
                    25:d2:a4:1b:34:00:78:19:e2:80:d8:d5:27:9e:f4:
                    8a:69:b0:b5:ee:be:a3:dc:91:c6:59:c3:fc:23:88:
                    2e:f3:68:ad:ed:e3:59:6b:ca:05:6a:15:de:c0:14:
                    8f:4e:ea:cf:da:7f:ab:b3:68:20:91:cf:7e:6a:5b:
                    37:b5:0f:47:9d:29:97:84:09:ba:c6:fc:fa:d6:5d:
                    34:60:2b:b0:94:3d:d5:fa:60:17:75:e4:aa:4d:57:
                    36:d6:d2:b6:03:1c:36:34:cb:94:70:ae:12:b7:08:
                    14:e6:d8:1d:3b:a5:8b:e8:a8:f8:1a:a1:94:29:ed:
                    37:fe:6c:1b:19:ca:31:78:8c:ea:48:3b:f0:3d:58:
                    04:48:7a:b6:ad:d7:5c:90:a0:63:21:f6:a0:1d:eb:
                    68:cb:dc:30:e5:cf:05:df:a9:69:49:71:c1:54:a8:
                    f0:30:ae:20:c1:0a:04:db:2b:11:99:f9:c9:07:81:
                    2d:ed:ae:bb:83:e9:a6:80:85:08:b5:a6:e6:86:5f:
                    e2:a7:58:77:92:bb:f7:61:87:57:64:7c:a4:36:f4:
                    64:d2:87:b3:2f:51:eb:6f:aa:39:1a:96:f3:3e:b6:
                    61:ae:8a:28:14:b3:21:6f:24:ae:69:05:92:c1:df:
                    85:19:a3:0f:80:b5:42:e3:a9:e1:e8:c5:89:1e:36:
                    8d:f2:b9:be:ab:c9:ee:b5:97:01:fa:7a:18:65:6f:
                    62:f5:c4:a7:93:28:b3:fc:cc:1c:1d:75:03:79:62:
                    5c:af:b4:47:6e:da:85:07:e4:ab:86:3a:ad:da:c5:
                    b5:3f:19:55:49:c1:37:6c:b0:35:0b:e4:d9:f7:f5:
                    3f:88:75:4c:85:40:14:b3:66:23:38:01:92:46:f9:
                    06:ac:0f:19:07:27:1a:96:9b:be:d8:62:d4:e9:36:
                    01:e5:ee:d3:46:e5:4b:20:d1:e2:a5:6e:06:1d:4a:
                    c3:9a:e7:ba:d2:f7:05:39:84:a3:9c:09:22:81:95:
                    d9:d2:ed:20:ee:62:a2:66:41:fd:8b:85:de:95:83:
                    90:29:b6:a3:84:2f:0f:de:29:25:67:97:31:a9:eb:
                    c3:03:97:c7:7d:db:cb:e0:f7:c3:7e:f4:90:80:10:
                    78:14:3d:b3:6c:9f:ec:c3:c1:53:26:b1:4e:1f:c4:
                    12:f8:c1:25:8e:28:47:d0:e6:3c:38:eb:8e:01:ac:
                    75:6a:ca:d7:e3:e3:f4:de:54:72:11:39:ba:7b:e7:
                    f1:ac:d9
                Exponent: 65537 (0x10001)
        X509v3 extensions:
            X509v3 Basic Constraints: 
                CA:FALSE
            Netscape Comment: 
                OpenSSL Generated Certificate
            X509v3 Subject Key Identifier: 
                B3:28:C6:75:4E:86:80:25:BC:17:B8:0A:5C:02:8B:5E:DB:23:09:30
            X509v3 Authority Key Identifier: 
                keyid:CE:B9:A5:66:BC:A1:05:DC:99:66:FE:F9:C1:35:CB:94:36:B2:87:AA
                DirName:/C=US/ST=UT/L=SLC/O=UOFU/OU=MSD/CN=SAM/emailAddress=u1195258@umail.utah.edu
                serial:27:71:47:9C:0E:78:6E:FE:43:ED:BE:A5:F8:38:AC:E8:EA:D9:E9:6D
    Signature Algorithm: md5WithRSAEncryption
    Signature Value:
        7f:23:3a:4c:e3:56:2a:96:2d:89:e0:a7:d3:95:b7:5b:6a:a0:
        ce:87:5c:e1:8e:a1:b6:b2:19:3d:f2:6c:67:0b:e4:88:0d:28:
        14:7a:f4:27:7c:c6:39:bf:96:d6:32:c2:da:e3:0a:6c:15:8c:
        35:6e:be:54:47:cd:00:64:cc:94:b0:68:a1:d2:de:ff:64:23:
        11:a6:98:f2:66:11:58:e0:74:79:27:19:c2:b9:c4:eb:ec:01:
        31:c1:35:6a:f0:04:31:eb:34:7b:2d:3f:a8:1b:22:95:07:73:
        0c:9d:7b:52:a7:49:0b:e9:b6:2f:4b:91:d2:dc:46:58:c4:7c:
        a9:e0:4f:12:22:db:13:d1:56:32:a9:7f:67:cf:f8:41:0d:7a:
        87:51:69:0f:6e:55:e8:19:4b:b8:e7:10:70:8b:4a:d8:20:45:
        85:38:6f:c0:e5:e6:a4:94:a0:fc:0c:24:38:91:d6:3f:89:50:
        67:fd:ae:12:a7:78:c9:8b:62:12:b1:2c:6e:f5:bf:8c:80:d1:
        39:01:21:c3:00:f5:ef:ca:54:29:42:3c:29:bf:c5:cf:86:b7:
        2b:69:08:95:23:bd:d1:85:f1:c0:27:76:e3:d8:2d:06:65:1d:
        61:12:58:fc:76:74:0a:4c:4c:c1:e3:09:1c:1a:60:12:8f:22:
        26:ab:48:4c:66:a7:54:2b:c2:10:8d:61:54:40:8d:2a:38:ae:
        6e:a3:b5:f9:67:30:fd:89:32:d0:40:a1:45:1f:0e:23:60:4d:
        c6:f4:af:1c:db:d4:21:fc:ce:dc:51:e7:10:8b:eb:0f:89:96:
        fc:4d:42:39:e4:47:3c:42:81:14:dc:a6:5b:ed:f1:bc:48:4e:
        7d:85:3e:31:40:e0:cc:9c:83:da:a1:2f:fe:dc:53:1d:b4:9e:
        f5:af:d7:eb:1d:a9:dc:a0:f0:6f:dd:48:de:25:ea:1d:c6:ff:
        fe:4c:b0:23:77:3c:e0:0d:f8:fa:a4:45:c6:e6:81:48:26:fc:
        86:75:11:b3:fc:67:d3:88:89:15:3e:5f:5a:7f:81:13:a2:75:
        b7:d8:4b:e6:df:50:d4:ff:a4:44:6c:6e:a9:bb:1a:8c:26:91:
        3d:1d:86:d5:dc:17:7a:2c:e6:8a:00:f4:f2:d8:89:cf:c3:8a:
        c6:0e:24:28:7e:e9:3a:ce:87:fd:1e:b7:bd:f0:bc:68:ad:44:
        f3:d7:b1:e8:ac:a6:14:d7:7b:6c:15:2d:2e:c4:4f:18:cf:1d:
        94:56:ca:c6:de:4f:aa:75:6a:e0:3e:3a:9a:f8:12:56:cd:fe:
        2d:a4:4e:b8:4d:48:e9:e6:06:59:d9:6d:cd:90:26:73:55:d7:
        5e:89:dd:a1:ed:50:20:77
-----BEGIN CERTIFICATE-----
MIIGgDCCBGigAwIBAgICEAAwDQYJKoZIhvcNAQEEBQAwezELMAkGA1UEBhMCVVMx
CzAJBgNVBAgMAlVUMQwwCgYDVQQHDANTTEMxDTALBgNVBAoMBFVPRlUxDDAKBgNV
BAsMA01TRDEMMAoGA1UEAwwDU0FNMSYwJAYJKoZIhvcNAQkBFhd1MTE5NTI1OEB1
bWFpbC51dGFoLmVkdTAeFw0yNDAzMTMxNjMxNTFaFw0yNTAzMTMxNjMxNTFaMHAx
CzAJBgNVBAYTAlVTMQswCQYDVQQIDAJVVDENMAsGA1UECgwEVU9GVTEMMAoGA1UE
CwwDTVNEMQ8wDQYDVQQDDAZTRVJWRVIxJjAkBgkqhkiG9w0BCQEWF3UxMTk1MjU4
QHVtYWlsLnV0YWguZWR1MIICIjANBgkqhkiG9w0BAQEFAAOCAg8AMIICCgKCAgEA
o73dd6vSqTSqPxPNv11EO6kskkFV9dS89P9fZyJtxDWG5S+nPDOjIZLgtmkl0qQb
NAB4GeKA2NUnnvSKabC17r6j3JHGWcP8I4gu82it7eNZa8oFahXewBSPTurP2n+r
s2ggkc9+als3tQ9HnSmXhAm6xvz61l00YCuwlD3V+mAXdeSqTVc21tK2Axw2NMuU
cK4StwgU5tgdO6WL6Kj4GqGUKe03/mwbGcoxeIzqSDvwPVgESHq2rddckKBjIfag
Hetoy9ww5c8F36lpSXHBVKjwMK4gwQoE2ysRmfnJB4Et7a67g+mmgIUItabmhl/i
p1h3krv3YYdXZHykNvRk0oezL1Hrb6o5GpbzPrZhroooFLMhbySuaQWSwd+FGaMP
gLVC46nh6MWJHjaN8rm+q8nutZcB+noYZW9i9cSnkyiz/MwcHXUDeWJcr7RHbtqF
B+Srhjqt2sW1PxlVScE3bLA1C+TZ9/U/iHVMhUAUs2YjOAGSRvkGrA8ZBycalpu+
2GLU6TYB5e7TRuVLINHipW4GHUrDmue60vcFOYSjnAkigZXZ0u0g7mKiZkH9i4Xe
lYOQKbajhC8P3iklZ5cxqevDA5fHfdvL4PfDfvSQgBB4FD2zbJ/sw8FTJrFOH8QS
+MEljihH0OY8OOuOAax1asrX4+P03lRyETm6e+fxrNkCAwEAAaOCARcwggETMAkG
A1UdEwQCMAAwLAYJYIZIAYb4QgENBB8WHU9wZW5TU0wgR2VuZXJhdGVkIENlcnRp
ZmljYXRlMB0GA1UdDgQWBBSzKMZ1ToaAJbwXuApcAote2yMJMDCBuAYDVR0jBIGw
MIGtgBTOuaVmvKEF3Jlm/vnBNcuUNrKHqqF/pH0wezELMAkGA1UEBhMCVVMxCzAJ
BgNVBAgMAlVUMQwwCgYDVQQHDANTTEMxDTALBgNVBAoMBFVPRlUxDDAKBgNVBAsM
A01TRDEMMAoGA1UEAwwDU0FNMSYwJAYJKoZIhvcNAQkBFhd1MTE5NTI1OEB1bWFp
bC51dGFoLmVkdYIUJ3FHnA54bv5D7b6l+Dis6OrZ6W0wDQYJKoZIhvcNAQEEBQAD
ggIBAH8jOkzjViqWLYngp9OVt1tqoM6HXOGOobayGT3ybGcL5IgNKBR69Cd8xjm/
ltYywtrjCmwVjDVuvlRHzQBkzJSwaKHS3v9kIxGmmPJmEVjgdHknGcK5xOvsATHB
NWrwBDHrNHstP6gbIpUHcwyde1KnSQvpti9LkdLcRljEfKngTxIi2xPRVjKpf2fP
+EENeodRaQ9uVegZS7jnEHCLStggRYU4b8Dl5qSUoPwMJDiR1j+JUGf9rhKneMmL
YhKxLG71v4yA0TkBIcMA9e/KVClCPCm/xc+GtytpCJUjvdGF8cAnduPYLQZlHWES
WPx2dApMTMHjCRwaYBKPIiarSExmp1QrwhCNYVRAjSo4rm6jtflnMP2JMtBAoUUf
DiNgTcb0rxzb1CH8ztxR5xCL6w+JlvxNQjnkRzxCgRTcplvt8bxITn2FPjFA4Myc
g9qhL/7cUx20nvWv1+sdqdyg8G/dSN4l6h3G//5MsCN3POAN+PqkRcbmgUgm/IZ1
EbP8Z9OIiRU+X1p/gROidbfYS+bfUNT/pERsbqm7GowmkT0dhtXcF3os5ooA9PLY
ic/DisYOJCh+6TrOh/0et73wvGitRPPXseisphTXe2wVLS7ETxjPHZRWysbeT6p1
auA+Opr4ElbN/i2kTrhNSOnmBlnZbc2QJnNV116J3aHtUCB3
-----END CERTIFICATE-----
