Certificate:
    Data:
        Version: 3 (0x2)
        Serial Number: 4097 (0x1001)
        Signature Algorithm: md5WithRSAEncryption
        Issuer: C=US, ST=UT, L=SLC, O=UOFU, OU=MSD, CN=SAM/emailAddress=u1195258@umail.utah.edu
        Validity
            Not Before: Mar 13 16:32:58 2024 GMT
            Not After : Mar 13 16:32:58 2025 GMT
        Subject: C=US, ST=UT, O=UOFU, OU=MSD, CN=CLIENT/emailAddress=u1195258@umail.utah.edu
        Subject Public Key Info:
            Public Key Algorithm: rsaEncryption
                Public-Key: (4096 bit)
                Modulus:
                    00:cd:1c:61:ed:85:ef:6d:25:90:87:42:a5:d2:1f:
                    7d:4e:f8:05:a0:6c:d7:55:61:d6:3f:06:2d:98:9f:
                    2b:71:57:bd:8e:ee:ca:dc:61:d4:48:9d:5f:83:50:
                    fe:53:da:39:79:a3:54:07:f8:18:59:f4:db:4c:97:
                    9f:b2:b1:48:d2:c3:e4:45:ef:70:3d:f2:54:7f:62:
                    c1:34:8b:d0:6b:bd:c1:d4:70:27:45:06:f4:d1:d4:
                    b5:db:56:0d:85:72:e8:be:aa:37:e4:59:79:20:aa:
                    ba:9c:7d:88:c3:25:b3:c3:20:4b:a6:9d:50:ab:85:
                    f7:11:dd:a0:f6:a1:e5:0d:30:4a:aa:65:cc:01:47:
                    0e:5f:b0:4b:ea:5b:e6:c5:5e:62:df:70:db:e6:0c:
                    c4:1b:02:38:b3:91:7b:1a:19:56:8f:ad:e3:e0:9e:
                    f9:9b:72:ab:94:df:cd:92:6d:b8:d3:5c:4d:d9:67:
                    2e:c6:9a:78:28:61:08:b3:26:20:58:aa:52:fd:ce:
                    28:7e:ac:a3:d0:37:2a:49:23:c3:f5:28:92:85:0a:
                    d7:08:f2:c8:e6:5f:56:4c:39:a5:8b:b7:13:09:9b:
                    43:bb:a6:c1:b7:8e:cc:ff:ae:55:06:9c:7f:e7:77:
                    d7:f7:c9:2c:e2:68:c2:8b:5d:9a:e2:9f:8e:54:a4:
                    60:0e:17:90:84:33:d9:3c:6c:6b:d3:0e:81:e0:f7:
                    0a:60:c0:76:9d:32:fe:38:30:20:fe:72:f7:b9:2d:
                    1c:fe:f8:ec:c7:5c:b4:0f:7d:6e:26:9e:25:f2:e8:
                    b3:9f:e1:56:9f:80:3f:96:f1:cb:fa:c2:a1:de:90:
                    5d:61:ad:64:18:af:c8:f3:ed:30:4c:8f:19:27:f7:
                    ca:69:c9:51:72:79:5a:d1:a2:e9:5d:00:d9:39:b7:
                    7b:d7:62:f6:6a:d2:39:d6:e4:4c:a7:1d:d9:9d:6d:
                    17:87:03:f5:87:3e:b3:50:f7:3c:08:4c:31:f1:56:
                    91:97:16:ae:f4:8f:7a:db:db:2f:d6:0e:dd:ea:3c:
                    ba:96:fd:97:9b:c6:14:20:f3:d2:ad:27:be:16:85:
                    d1:c2:ab:d6:a2:25:f5:4c:05:f9:b2:dc:cf:7b:09:
                    9d:3d:50:5a:31:0c:29:cf:26:24:96:67:f6:6d:14:
                    68:a5:a9:b1:65:4b:e6:2e:ae:ee:49:7d:52:b3:14:
                    2a:86:8f:87:14:04:ea:97:34:13:24:17:7e:10:6a:
                    ff:d2:67:00:1c:1f:86:5e:f9:31:20:59:d9:92:74:
                    54:c0:7b:1f:df:ac:61:f6:dc:d2:97:0f:a7:f6:aa:
                    48:34:9c:dd:03:37:6e:78:b8:e9:1a:5b:b7:9b:a0:
                    40:e3:79
                Exponent: 65537 (0x10001)
        X509v3 extensions:
            X509v3 Basic Constraints: 
                CA:FALSE
            Netscape Comment: 
                OpenSSL Generated Certificate
            X509v3 Subject Key Identifier: 
                DF:F8:58:B4:26:73:75:BD:5E:06:9B:C7:BD:BF:61:5C:A4:4F:96:01
            X509v3 Authority Key Identifier: 
                keyid:CE:B9:A5:66:BC:A1:05:DC:99:66:FE:F9:C1:35:CB:94:36:B2:87:AA
                DirName:/C=US/ST=UT/L=SLC/O=UOFU/OU=MSD/CN=SAM/emailAddress=u1195258@umail.utah.edu
                serial:27:71:47:9C:0E:78:6E:FE:43:ED:BE:A5:F8:38:AC:E8:EA:D9:E9:6D
    Signature Algorithm: md5WithRSAEncryption
    Signature Value:
        4d:45:73:c7:30:ea:d3:53:e8:bb:67:fe:ab:af:a0:69:03:8c:
        15:0a:89:13:4d:4a:e5:7f:c6:d0:4e:02:1b:2d:86:6d:13:dc:
        f3:7d:90:4c:f2:59:d4:6d:cf:d5:f8:ea:10:65:33:e3:45:6a:
        5c:a0:8d:0c:a1:62:f6:6d:78:d5:fd:8c:0e:1a:16:e9:e3:bd:
        d0:4b:18:de:eb:99:5f:cd:24:1e:fb:37:11:2b:7a:79:66:1a:
        14:22:8d:49:b2:6f:82:ea:2b:ed:c6:fa:a5:f6:4a:f5:ec:53:
        14:75:2a:09:91:06:e9:4e:25:38:7d:69:86:48:35:aa:18:89:
        b1:af:74:9d:f3:bd:7d:ab:44:6e:7d:cb:e9:70:84:d5:98:cb:
        6b:d3:e9:15:ef:0e:a5:55:48:4e:48:87:75:4f:ee:57:b8:be:
        76:9d:f1:b5:f0:81:7d:26:77:e2:94:93:21:5b:7e:4c:fd:3f:
        0a:e7:d9:c9:e2:b3:96:17:15:c4:c3:9a:da:51:3f:d8:3a:12:
        a0:5c:16:22:c3:dd:70:b7:d3:da:47:fc:f2:9a:a7:3e:f5:aa:
        c9:12:59:dc:e4:ed:a8:ba:81:f8:0b:b5:94:a5:08:5b:34:23:
        b4:93:be:33:9c:65:d7:e8:07:5c:f3:50:8f:ad:c9:72:e7:de:
        2e:7c:2c:58:8a:4a:5c:73:a6:57:04:d3:fb:2c:75:3c:46:9c:
        1c:e8:2a:c6:24:77:41:3b:b2:bf:d4:b7:16:c8:d1:dd:33:05:
        93:b9:77:55:59:2e:26:21:04:94:47:39:5d:7d:d3:a9:60:11:
        9c:c3:79:4a:e5:36:f7:44:2d:d3:cb:4d:9e:38:f8:dc:fc:45:
        bc:09:16:80:1f:ae:3f:06:da:61:8c:86:bb:21:7c:9f:81:16:
        88:e8:36:f7:f4:f1:db:7c:31:9e:c0:a7:83:55:8c:c6:35:31:
        07:a8:71:ec:bf:59:45:37:f7:5c:40:4e:92:09:16:5c:0a:8f:
        94:e9:24:45:30:e8:31:c4:ea:f8:ae:a9:67:60:10:ac:4f:ab:
        07:4c:a1:da:85:b6:95:28:c5:54:1c:97:81:e3:ae:a5:eb:de:
        dc:cb:c3:04:0d:af:ec:ec:36:1e:14:ac:56:17:6d:5b:52:b8:
        17:e1:84:89:d9:50:06:60:a5:68:f7:86:80:e0:c3:af:43:81:
        54:ed:61:03:7c:cc:81:66:31:ef:f7:89:0d:6b:e2:c4:6f:be:
        ab:7e:0a:29:a1:93:33:68:43:7f:01:15:08:48:0f:07:a3:fa:
        40:49:8f:68:f4:21:cc:b2:e5:c9:dd:e7:2c:d5:59:c2:40:6e:
        00:a6:78:1c:7b:2c:da:4b
-----BEGIN CERTIFICATE-----
MIIGgDCCBGigAwIBAgICEAEwDQYJKoZIhvcNAQEEBQAwezELMAkGA1UEBhMCVVMx
CzAJBgNVBAgMAlVUMQwwCgYDVQQHDANTTEMxDTALBgNVBAoMBFVPRlUxDDAKBgNV
BAsMA01TRDEMMAoGA1UEAwwDU0FNMSYwJAYJKoZIhvcNAQkBFhd1MTE5NTI1OEB1
bWFpbC51dGFoLmVkdTAeFw0yNDAzMTMxNjMyNThaFw0yNTAzMTMxNjMyNThaMHAx
CzAJBgNVBAYTAlVTMQswCQYDVQQIDAJVVDENMAsGA1UECgwEVU9GVTEMMAoGA1UE
CwwDTVNEMQ8wDQYDVQQDDAZDTElFTlQxJjAkBgkqhkiG9w0BCQEWF3UxMTk1MjU4
QHVtYWlsLnV0YWguZWR1MIICIjANBgkqhkiG9w0BAQEFAAOCAg8AMIICCgKCAgEA
zRxh7YXvbSWQh0Kl0h99TvgFoGzXVWHWPwYtmJ8rcVe9ju7K3GHUSJ1fg1D+U9o5
eaNUB/gYWfTbTJefsrFI0sPkRe9wPfJUf2LBNIvQa73B1HAnRQb00dS121YNhXLo
vqo35Fl5IKq6nH2IwyWzwyBLpp1Qq4X3Ed2g9qHlDTBKqmXMAUcOX7BL6lvmxV5i
33Db5gzEGwI4s5F7GhlWj63j4J75m3KrlN/Nkm2401xN2Wcuxpp4KGEIsyYgWKpS
/c4ofqyj0DcqSSPD9SiShQrXCPLI5l9WTDmli7cTCZtDu6bBt47M/65VBpx/53fX
98ks4mjCi12a4p+OVKRgDheQhDPZPGxr0w6B4PcKYMB2nTL+ODAg/nL3uS0c/vjs
x1y0D31uJp4l8uizn+FWn4A/lvHL+sKh3pBdYa1kGK/I8+0wTI8ZJ/fKaclRcnla
0aLpXQDZObd712L2atI51uRMpx3ZnW0XhwP1hz6zUPc8CEwx8VaRlxau9I9629sv
1g7d6jy6lv2Xm8YUIPPSrSe+FoXRwqvWoiX1TAX5stzPewmdPVBaMQwpzyYklmf2
bRRopamxZUvmLq7uSX1SsxQqho+HFATqlzQTJBd+EGr/0mcAHB+GXvkxIFnZknRU
wHsf36xh9tzSlw+n9qpINJzdAzdueLjpGlu3m6BA43kCAwEAAaOCARcwggETMAkG
A1UdEwQCMAAwLAYJYIZIAYb4QgENBB8WHU9wZW5TU0wgR2VuZXJhdGVkIENlcnRp
ZmljYXRlMB0GA1UdDgQWBBTf+Fi0JnN1vV4Gm8e9v2FcpE+WATCBuAYDVR0jBIGw
MIGtgBTOuaVmvKEF3Jlm/vnBNcuUNrKHqqF/pH0wezELMAkGA1UEBhMCVVMxCzAJ
BgNVBAgMAlVUMQwwCgYDVQQHDANTTEMxDTALBgNVBAoMBFVPRlUxDDAKBgNVBAsM
A01TRDEMMAoGA1UEAwwDU0FNMSYwJAYJKoZIhvcNAQkBFhd1MTE5NTI1OEB1bWFp
bC51dGFoLmVkdYIUJ3FHnA54bv5D7b6l+Dis6OrZ6W0wDQYJKoZIhvcNAQEEBQAD
ggIBAE1Fc8cw6tNT6Ltn/quvoGkDjBUKiRNNSuV/xtBOAhsthm0T3PN9kEzyWdRt
z9X46hBlM+NFalygjQyhYvZteNX9jA4aFunjvdBLGN7rmV/NJB77NxErenlmGhQi
jUmyb4LqK+3G+qX2SvXsUxR1KgmRBulOJTh9aYZINaoYibGvdJ3zvX2rRG59y+lw
hNWYy2vT6RXvDqVVSE5Ih3VP7le4vnad8bXwgX0md+KUkyFbfkz9Pwrn2cnis5YX
FcTDmtpRP9g6EqBcFiLD3XC309pH/PKapz71qskSWdzk7ai6gfgLtZSlCFs0I7ST
vjOcZdfoB1zzUI+tyXLn3i58LFiKSlxzplcE0/ssdTxGnBzoKsYkd0E7sr/UtxbI
0d0zBZO5d1VZLiYhBJRHOV1906lgEZzDeUrlNvdELdPLTZ44+Nz8RbwJFoAfrj8G
2mGMhrshfJ+BFojoNvf08dt8MZ7Ap4NVjMY1MQeocey/WUU391xATpIJFlwKj5Tp
JEUw6DHE6viuqWdgEKxPqwdModqFtpUoxVQcl4HjrqXr3tzLwwQNr+zsNh4UrFYX
bVtSuBfhhInZUAZgpWj3hoDgw69DgVTtYQN8zIFmMe/3iQ1r4sRvvqt+CimhkzNo
Q38BFQhIDwej+kBJj2j0Icyy5cnd5yzVWcJAbgCmeBx7LNpL
-----END CERTIFICATE-----
